target datalayout = "e-m:e-p270:32:32-p271:32:32-p272:64:64-i64:64-i128:128-f80:128-n8:16:32:64-S128"
target triple = "x86_64-pc-linux-gnu"

%struct.dbcs_index = type { ptr, i8, i8 }

; Function Attrs: nounwind uwtable
define internal i64 @gbk_decode(ptr noundef %0, ptr noundef %1, ptr noundef %2, i64 noundef %3, ptr noundef %4) #0 {
  %6 = alloca i64, align 8
  %7 = alloca ptr, align 8
  %8 = alloca ptr, align 8
  %9 = alloca ptr, align 8
  %10 = alloca i64, align 8
  %11 = alloca ptr, align 8
  %12 = alloca i8, align 1
  %13 = alloca i32, align 4
  %14 = alloca i32, align 4
  store ptr %0, ptr %7, align 8, !tbaa !3
  store ptr %1, ptr %8, align 8, !tbaa !21
  store ptr %2, ptr %9, align 8, !tbaa !68
  store i64 %3, ptr %10, align 8, !tbaa !28
  store ptr %4, ptr %11, align 8, !tbaa !3
  br label %15

15:                                               ; preds = %273, %271, %5
  %16 = load i64, ptr %10, align 8, !tbaa !28
  %17 = icmp sgt i64 %16, 0
  br i1 %17, label %18, label %274

18:                                               ; preds = %15
  call void @llvm.lifetime.start.p0(i64 1, ptr %12) #9
  %19 = load ptr, ptr %9, align 8, !tbaa !68
  %20 = load ptr, ptr %19, align 8, !tbaa !17
  %21 = getelementptr i8, ptr %20, i64 0
  %22 = load i8, ptr %21, align 1, !tbaa !42
  store i8 %22, ptr %12, align 1, !tbaa !42
  call void @llvm.lifetime.start.p0(i64 4, ptr %13) #9
  %23 = load i8, ptr %12, align 1, !tbaa !42
  %24 = zext i8 %23 to i32
  %25 = icmp slt i32 %24, 128
  br i1 %25, label %26, label %45

26:                                               ; preds = %18
  br label %27

27:                                               ; preds = %26
  %28 = load ptr, ptr %11, align 8, !tbaa !3
  %29 = load i8, ptr %12, align 1, !tbaa !42
  %30 = zext i8 %29 to i32
  %31 = call i32 @_PyUnicodeWriter_WriteChar(ptr noundef %28, i32 noundef %30)
  %32 = icmp slt i32 %31, 0
  br i1 %32, label %33, label %34

33:                                               ; preds = %27
  store i64 -4, ptr %6, align 8
  store i32 1, ptr %14, align 4
  br label %271

34:                                               ; preds = %27
  br label %35

35:                                               ; preds = %34
  br label %36

36:                                               ; preds = %35
  br label %37

37:                                               ; preds = %36
  %38 = load ptr, ptr %9, align 8, !tbaa !68
  %39 = load ptr, ptr %38, align 8, !tbaa !17
  %40 = getelementptr i8, ptr %39, i64 1
  store ptr %40, ptr %38, align 8, !tbaa !17
  %41 = load i64, ptr %10, align 8, !tbaa !28
  %42 = sub i64 %41, 1
  store i64 %42, ptr %10, align 8, !tbaa !28
  br label %43

43:                                               ; preds = %37
  br label %44

44:                                               ; preds = %43
  store i32 2, ptr %14, align 4
  br label %271, !llvm.loop !83

45:                                               ; preds = %18
  br label %46

46:                                               ; preds = %45
  %47 = load i64, ptr %10, align 8, !tbaa !28
  %48 = icmp slt i64 %47, 2
  br i1 %48, label %49, label %50

49:                                               ; preds = %46
  store i64 -2, ptr %6, align 8
  store i32 1, ptr %14, align 4
  br label %271

50:                                               ; preds = %46
  br label %51

51:                                               ; preds = %50
  br label %52

52:                                               ; preds = %51
  %53 = load i8, ptr %12, align 1, !tbaa !42
  %54 = zext i8 %53 to i32
  %55 = icmp eq i32 %54, 161
  br i1 %55, label %56, label %72

56:                                               ; preds = %52
  %57 = load ptr, ptr %9, align 8, !tbaa !68
  %58 = load ptr, ptr %57, align 8, !tbaa !17
  %59 = getelementptr i8, ptr %58, i64 1
  %60 = load i8, ptr %59, align 1, !tbaa !42
  %61 = zext i8 %60 to i32
  %62 = icmp eq i32 %61, 170
  br i1 %62, label %63, label %72

63:                                               ; preds = %56
  br label %64

64:                                               ; preds = %63
  %65 = load ptr, ptr %11, align 8, !tbaa !3
  %66 = call i32 @_PyUnicodeWriter_WriteChar(ptr noundef %65, i32 noundef 8212)
  %67 = icmp slt i32 %66, 0
  br i1 %67, label %68, label %69

68:                                               ; preds = %64
  store i64 -4, ptr %6, align 8
  store i32 1, ptr %14, align 4
  br label %271

69:                                               ; preds = %64
  br label %70

70:                                               ; preds = %69
  br label %71

71:                                               ; preds = %70
  br label %262

72:                                               ; preds = %56, %52
  %73 = load i8, ptr %12, align 1, !tbaa !42
  %74 = zext i8 %73 to i32
  %75 = icmp eq i32 %74, 168
  br i1 %75, label %76, label %92

76:                                               ; preds = %72
  %77 = load ptr, ptr %9, align 8, !tbaa !68
  %78 = load ptr, ptr %77, align 8, !tbaa !17
  %79 = getelementptr i8, ptr %78, i64 1
  %80 = load i8, ptr %79, align 1, !tbaa !42
  %81 = zext i8 %80 to i32
  %82 = icmp eq i32 %81, 68
  br i1 %82, label %83, label %92

83:                                               ; preds = %76
  br label %84

84:                                               ; preds = %83
  %85 = load ptr, ptr %11, align 8, !tbaa !3
  %86 = call i32 @_PyUnicodeWriter_WriteChar(ptr noundef %85, i32 noundef 8213)
  %87 = icmp slt i32 %86, 0
  br i1 %87, label %88, label %89

88:                                               ; preds = %84
  store i64 -4, ptr %6, align 8
  store i32 1, ptr %14, align 4
  br label %271

89:                                               ; preds = %84
  br label %90

90:                                               ; preds = %89
  br label %91

91:                                               ; preds = %90
  br label %261

92:                                               ; preds = %76, %72
  %93 = load i8, ptr %12, align 1, !tbaa !42
  %94 = zext i8 %93 to i32
  %95 = icmp eq i32 %94, 161
  br i1 %95, label %96, label %112

96:                                               ; preds = %92
  %97 = load ptr, ptr %9, align 8, !tbaa !68
  %98 = load ptr, ptr %97, align 8, !tbaa !17
  %99 = getelementptr i8, ptr %98, i64 1
  %100 = load i8, ptr %99, align 1, !tbaa !42
  %101 = zext i8 %100 to i32
  %102 = icmp eq i32 %101, 164
  br i1 %102, label %103, label %112

103:                                              ; preds = %96
  br label %104

104:                                              ; preds = %103
  %105 = load ptr, ptr %11, align 8, !tbaa !3
  %106 = call i32 @_PyUnicodeWriter_WriteChar(ptr noundef %105, i32 noundef 183)
  %107 = icmp slt i32 %106, 0
  br i1 %107, label %108, label %109

108:                                              ; preds = %104
  store i64 -4, ptr %6, align 8
  store i32 1, ptr %14, align 4
  br label %271

109:                                              ; preds = %104
  br label %110

110:                                              ; preds = %109
  br label %111

111:                                              ; preds = %110
  br label %260

112:                                              ; preds = %96, %92
  %113 = load i8, ptr %12, align 1, !tbaa !42
  %114 = zext i8 %113 to i32
  %115 = xor i32 %114, 128
  %116 = sext i32 %115 to i64
  %117 = getelementptr [256 x %struct.dbcs_index], ptr @gb2312_decmap, i64 0, i64 %116
  %118 = getelementptr inbounds nuw %struct.dbcs_index, ptr %117, i32 0, i32 0
  %119 = load ptr, ptr %118, align 16, !tbaa !78
  %120 = icmp ne ptr %119, null
  br i1 %120, label %121, label %191

121:                                              ; preds = %112
  %122 = load ptr, ptr %9, align 8, !tbaa !68
  %123 = load ptr, ptr %122, align 8, !tbaa !17
  %124 = getelementptr i8, ptr %123, i64 1
  %125 = load i8, ptr %124, align 1, !tbaa !42
  %126 = zext i8 %125 to i32
  %127 = xor i32 %126, 128
  %128 = load i8, ptr %12, align 1, !tbaa !42
  %129 = zext i8 %128 to i32
  %130 = xor i32 %129, 128
  %131 = sext i32 %130 to i64
  %132 = getelementptr [256 x %struct.dbcs_index], ptr @gb2312_decmap, i64 0, i64 %131
  %133 = getelementptr inbounds nuw %struct.dbcs_index, ptr %132, i32 0, i32 1
  %134 = load i8, ptr %133, align 8, !tbaa !80
  %135 = zext i8 %134 to i32
  %136 = icmp sge i32 %127, %135
  br i1 %136, label %137, label %191

137:                                              ; preds = %121
  %138 = load ptr, ptr %9, align 8, !tbaa !68
  %139 = load ptr, ptr %138, align 8, !tbaa !17
  %140 = getelementptr i8, ptr %139, i64 1
  %141 = load i8, ptr %140, align 1, !tbaa !42
  %142 = zext i8 %141 to i32
  %143 = xor i32 %142, 128
  %144 = load i8, ptr %12, align 1, !tbaa !42
  %145 = zext i8 %144 to i32
  %146 = xor i32 %145, 128
  %147 = sext i32 %146 to i64
  %148 = getelementptr [256 x %struct.dbcs_index], ptr @gb2312_decmap, i64 0, i64 %147
  %149 = getelementptr inbounds nuw %struct.dbcs_index, ptr %148, i32 0, i32 2
  %150 = load i8, ptr %149, align 1, !tbaa !81
  %151 = zext i8 %150 to i32
  %152 = icmp sle i32 %143, %151
  br i1 %152, label %153, label %191

153:                                              ; preds = %137
  %154 = load i8, ptr %12, align 1, !tbaa !42
  %155 = zext i8 %154 to i32
  %156 = xor i32 %155, 128
  %157 = sext i32 %156 to i64
  %158 = getelementptr [256 x %struct.dbcs_index], ptr @gb2312_decmap, i64 0, i64 %157
  %159 = getelementptr inbounds nuw %struct.dbcs_index, ptr %158, i32 0, i32 0
  %160 = load ptr, ptr %159, align 16, !tbaa !78
  %161 = load ptr, ptr %9, align 8, !tbaa !68
  %162 = load ptr, ptr %161, align 8, !tbaa !17
  %163 = getelementptr i8, ptr %162, i64 1
  %164 = load i8, ptr %163, align 1, !tbaa !42
  %165 = zext i8 %164 to i32
  %166 = xor i32 %165, 128
  %167 = load i8, ptr %12, align 1, !tbaa !42
  %168 = zext i8 %167 to i32
  %169 = xor i32 %168, 128
  %170 = sext i32 %169 to i64
  %171 = getelementptr [256 x %struct.dbcs_index], ptr @gb2312_decmap, i64 0, i64 %170
  %172 = getelementptr inbounds nuw %struct.dbcs_index, ptr %171, i32 0, i32 1
  %173 = load i8, ptr %172, align 8, !tbaa !80
  %174 = zext i8 %173 to i32
  %175 = sub i32 %166, %174
  %176 = sext i32 %175 to i64
  %177 = getelementptr i16, ptr %160, i64 %176
  %178 = load i16, ptr %177, align 2, !tbaa !76
  %179 = zext i16 %178 to i32
  store i32 %179, ptr %13, align 4, !tbaa !19
  %180 = icmp ne i32 %179, 65534
  br i1 %180, label %181, label %191

181:                                              ; preds = %153
  br label %182

182:                                              ; preds = %181
  %183 = load ptr, ptr %11, align 8, !tbaa !3
  %184 = load i32, ptr %13, align 4, !tbaa !19
  %185 = call i32 @_PyUnicodeWriter_WriteChar(ptr noundef %183, i32 noundef %184)
  %186 = icmp slt i32 %185, 0
  br i1 %186, label %187, label %188

187:                                              ; preds = %182
  store i64 -4, ptr %6, align 8
  store i32 1, ptr %14, align 4
  br label %271

188:                                              ; preds = %182
  br label %189

189:                                              ; preds = %188
  br label %190

190:                                              ; preds = %189
  br label %259

191:                                              ; preds = %153, %137, %121, %112
  %192 = load i8, ptr %12, align 1, !tbaa !42
  %193 = zext i8 %192 to i64
  %194 = getelementptr [256 x %struct.dbcs_index], ptr @gbkext_decmap, i64 0, i64 %193
  %195 = getelementptr inbounds nuw %struct.dbcs_index, ptr %194, i32 0, i32 0
  %196 = load ptr, ptr %195, align 16, !tbaa !78
  %197 = icmp ne ptr %196, null
  br i1 %197, label %198, label %257

198:                                              ; preds = %191
  %199 = load ptr, ptr %9, align 8, !tbaa !68
  %200 = load ptr, ptr %199, align 8, !tbaa !17
  %201 = getelementptr i8, ptr %200, i64 1
  %202 = load i8, ptr %201, align 1, !tbaa !42
  %203 = zext i8 %202 to i32
  %204 = load i8, ptr %12, align 1, !tbaa !42
  %205 = zext i8 %204 to i64
  %206 = getelementptr [256 x %struct.dbcs_index], ptr @gbkext_decmap, i64 0, i64 %205
  %207 = getelementptr inbounds nuw %struct.dbcs_index, ptr %206, i32 0, i32 1
  %208 = load i8, ptr %207, align 8, !tbaa !80
  %209 = zext i8 %208 to i32
  %210 = icmp sge i32 %203, %209
  br i1 %210, label %211, label %257

211:                                              ; preds = %198
  %212 = load ptr, ptr %9, align 8, !tbaa !68
  %213 = load ptr, ptr %212, align 8, !tbaa !17
  %214 = getelementptr i8, ptr %213, i64 1
  %215 = load i8, ptr %214, align 1, !tbaa !42
  %216 = zext i8 %215 to i32
  %217 = load i8, ptr %12, align 1, !tbaa !42
  %218 = zext i8 %217 to i64
  %219 = getelementptr [256 x %struct.dbcs_index], ptr @gbkext_decmap, i64 0, i64 %218
  %220 = getelementptr inbounds nuw %struct.dbcs_index, ptr %219, i32 0, i32 2
  %221 = load i8, ptr %220, align 1, !tbaa !81
  %222 = zext i8 %221 to i32
  %223 = icmp sle i32 %216, %222
  br i1 %223, label %224, label %257

224:                                              ; preds = %211
  %225 = load i8, ptr %12, align 1, !tbaa !42
  %226 = zext i8 %225 to i64
  %227 = getelementptr [256 x %struct.dbcs_index], ptr @gbkext_decmap, i64 0, i64 %226
  %228 = getelementptr inbounds nuw %struct.dbcs_index, ptr %227, i32 0, i32 0
  %229 = load ptr, ptr %228, align 16, !tbaa !78
  %230 = load ptr, ptr %9, align 8, !tbaa !68
  %231 = load ptr, ptr %230, align 8, !tbaa !17
  %232 = getelementptr i8, ptr %231, i64 1
  %233 = load i8, ptr %232, align 1, !tbaa !42
  %234 = zext i8 %233 to i32
  %235 = load i8, ptr %12, align 1, !tbaa !42
  %236 = zext i8 %235 to i64
  %237 = getelementptr [256 x %struct.dbcs_index], ptr @gbkext_decmap, i64 0, i64 %236
  %238 = getelementptr inbounds nuw %struct.dbcs_index, ptr %237, i32 0, i32 1
  %239 = load i8, ptr %238, align 8, !tbaa !80
  %240 = zext i8 %239 to i32
  %241 = sub i32 %234, %240
  %242 = sext i32 %241 to i64
  %243 = getelementptr i16, ptr %229, i64 %242
  %244 = load i16, ptr %243, align 2, !tbaa !76
  %245 = zext i16 %244 to i32
  store i32 %245, ptr %13, align 4, !tbaa !19
  %246 = icmp ne i32 %245, 65534
  br i1 %246, label %247, label %257

247:                                              ; preds = %224
  br label %248

248:                                              ; preds = %247
  %249 = load ptr, ptr %11, align 8, !tbaa !3
  %250 = load i32, ptr %13, align 4, !tbaa !19
  %251 = call i32 @_PyUnicodeWriter_WriteChar(ptr noundef %249, i32 noundef %250)
  %252 = icmp slt i32 %251, 0
  br i1 %252, label %253, label %254

253:                                              ; preds = %248
  store i64 -4, ptr %6, align 8
  store i32 1, ptr %14, align 4
  br label %271

254:                                              ; preds = %248
  br label %255

255:                                              ; preds = %254
  br label %256

256:                                              ; preds = %255
  br label %258

257:                                              ; preds = %224, %211, %198, %191
  store i64 1, ptr %6, align 8
  store i32 1, ptr %14, align 4
  br label %271

258:                                              ; preds = %256
  br label %259

259:                                              ; preds = %258, %190
  br label %260

260:                                              ; preds = %259, %111
  br label %261

261:                                              ; preds = %260, %91
  br label %262

262:                                              ; preds = %261, %71
  br label %263

263:                                              ; preds = %262
  %264 = load ptr, ptr %9, align 8, !tbaa !68
  %265 = load ptr, ptr %264, align 8, !tbaa !17
  %266 = getelementptr i8, ptr %265, i64 2
  store ptr %266, ptr %264, align 8, !tbaa !17
  %267 = load i64, ptr %10, align 8, !tbaa !28
  %268 = sub i64 %267, 2
  store i64 %268, ptr %10, align 8, !tbaa !28
  br label %269

269:                                              ; preds = %263
  br label %270

270:                                              ; preds = %269
  store i32 0, ptr %14, align 4
  br label %271

271:                                              ; preds = %270, %257, %253, %187, %108, %88, %68, %49, %44, %33
  call void @llvm.lifetime.end.p0(i64 4, ptr %13) #9
  call void @llvm.lifetime.end.p0(i64 1, ptr %12) #9
  %272 = load i32, ptr %14, align 4
  switch i32 %272, label %277 [
    i32 0, label %273
    i32 1, label %275
    i32 2, label %15
  ]

273:                                              ; preds = %271
  br label %15, !llvm.loop !83

274:                                              ; preds = %15
  store i64 0, ptr %6, align 8
  br label %275

275:                                              ; preds = %274, %271
  %276 = load i64, ptr %6, align 8
  ret i64 %276

277:                                              ; preds = %271
  unreachable
}