; Function Attrs: nounwind uwtable
define internal range(i64 -4, 2) i64 @gbk_decode(ptr readnone captures(none) %0, ptr readnone captures(none) %1, ptr noundef captures(none) %2, i64 noundef %3, ptr noundef %4) #0 {
  %6 = icmp sgt i64 %3, 0
  br i1 %6, label %.lr.ph.preheader, label %.thread62

.lr.ph.preheader:                                 ; preds = %5
  %.pre = load ptr, ptr %2, align 8, !tbaa !37
  br label %.lr.ph

.lr.ph:                                           ; preds = %.lr.ph.preheader, %78
  %7 = phi ptr [ %80, %78 ], [ %.pre, %.lr.ph.preheader ]
  %.04168 = phi i64 [ %81, %78 ], [ %3, %.lr.ph.preheader ]
  %8 = load i8, ptr %7, align 1, !tbaa !34
  %9 = zext i8 %8 to i32
  %10 = icmp sgt i8 %8, -1
  br i1 %10, label %11, label %14

11:                                               ; preds = %.lr.ph
  %12 = tail call i32 @_PyUnicodeWriter_WriteChar(ptr noundef %4, i32 noundef %9) #9
  %13 = icmp slt i32 %12, 0
  br i1 %13, label %.thread62, label %78, !llvm.loop !64

14:                                               ; preds = %.lr.ph
  %15 = icmp eq i64 %.04168, 1
  br i1 %15, label %.thread62, label %16

16:                                               ; preds = %14
  switch i8 %8, label %.thread60 [
    i8 -95, label %17
    i8 -88, label %23
  ]

17:                                               ; preds = %16
  %18 = getelementptr i8, ptr %7, i64 1
  %19 = load i8, ptr %18, align 1, !tbaa !34
  switch i8 %19, label %.thread60 [
    i8 -86, label %20
    i8 -92, label %30
  ]

20:                                               ; preds = %17
  %21 = tail call i32 @_PyUnicodeWriter_WriteChar(ptr noundef %4, i32 noundef 8212) #9
  %22 = icmp slt i32 %21, 0
  br i1 %22, label %.thread62, label %78

23:                                               ; preds = %16
  %24 = getelementptr i8, ptr %7, i64 1
  %25 = load i8, ptr %24, align 1, !tbaa !34
  %26 = icmp eq i8 %25, 68
  br i1 %26, label %27, label %.thread60

27:                                               ; preds = %23
  %28 = tail call i32 @_PyUnicodeWriter_WriteChar(ptr noundef %4, i32 noundef 8213) #9
  %29 = icmp slt i32 %28, 0
  br i1 %29, label %.thread62, label %78

30:                                               ; preds = %17
  %31 = tail call i32 @_PyUnicodeWriter_WriteChar(ptr noundef %4, i32 noundef 183) #9
  %32 = icmp slt i32 %31, 0
  br i1 %32, label %.thread62, label %78

.thread60:                                        ; preds = %17, %16, %23
  %33 = and i32 %9, 127
  %34 = zext nneg i32 %33 to i64
  %35 = getelementptr [256 x %struct.dbcs_index], ptr @gb2312_decmap, i64 0, i64 %34
  %36 = load ptr, ptr %35, align 16, !tbaa !59
  %.not = icmp eq ptr %36, null
  br i1 %.not, label %56, label %37

37:                                               ; preds = %.thread60
  %38 = getelementptr i8, ptr %7, i64 1
  %39 = load i8, ptr %38, align 1, !tbaa !34
  %40 = xor i8 %39, -128
  %41 = zext i8 %40 to i64
  %42 = getelementptr inbounds nuw i8, ptr %35, i64 8
  %43 = load i8, ptr %42, align 8, !tbaa !61
  %44 = zext i8 %43 to i64
  %.not53 = icmp ult i8 %40, %43
  br i1 %.not53, label %56, label %45

45:                                               ; preds = %37
  %46 = getelementptr inbounds nuw i8, ptr %35, i64 9
  %47 = load i8, ptr %46, align 1, !tbaa !62
  %.not54 = icmp ugt i8 %40, %47
  br i1 %.not54, label %56, label %48

48:                                               ; preds = %45
  %49 = sub nsw i64 %41, %44
  %50 = getelementptr i16, ptr %36, i64 %49
  %51 = load i16, ptr %50, align 2, !tbaa !50
  %.not55 = icmp eq i16 %51, -2
  br i1 %.not55, label %56, label %52

52:                                               ; preds = %48
  %53 = zext i16 %51 to i32
  %54 = tail call i32 @_PyUnicodeWriter_WriteChar(ptr noundef %4, i32 noundef %53) #9
  %55 = icmp slt i32 %54, 0
  br i1 %55, label %.thread62, label %78

56:                                               ; preds = %48, %45, %37, %.thread60
  %57 = zext i8 %8 to i64
  %58 = getelementptr [256 x %struct.dbcs_index], ptr @gbkext_decmap, i64 0, i64 %57
  %59 = load ptr, ptr %58, align 16, !tbaa !59
  %.not56 = icmp eq ptr %59, null
  br i1 %.not56, label %.thread62, label %60

60:                                               ; preds = %56
  %61 = getelementptr i8, ptr %7, i64 1
  %62 = load i8, ptr %61, align 1, !tbaa !34
  %63 = zext i8 %62 to i64
  %64 = getelementptr inbounds nuw i8, ptr %58, i64 8
  %65 = load i8, ptr %64, align 8, !tbaa !61
  %66 = zext i8 %65 to i64
  %.not57 = icmp ult i8 %62, %65
  br i1 %.not57, label %.thread62, label %67

67:                                               ; preds = %60
  %68 = getelementptr inbounds nuw i8, ptr %58, i64 9
  %69 = load i8, ptr %68, align 1, !tbaa !62
  %.not58 = icmp ugt i8 %62, %69
  br i1 %.not58, label %.thread62, label %70

70:                                               ; preds = %67
  %71 = sub nsw i64 %63, %66
  %72 = getelementptr i16, ptr %59, i64 %71
  %73 = load i16, ptr %72, align 2, !tbaa !50
  %.not59 = icmp eq i16 %73, -2
  br i1 %.not59, label %.thread62, label %74

74:                                               ; preds = %70
  %75 = zext i16 %73 to i32
  %76 = tail call i32 @_PyUnicodeWriter_WriteChar(ptr noundef %4, i32 noundef %75) #9
  %77 = icmp slt i32 %76, 0
  br i1 %77, label %.thread62, label %78

78:                                               ; preds = %27, %52, %74, %30, %20, %11
  %.sink93 = phi i64 [ 1, %11 ], [ 2, %20 ], [ 2, %30 ], [ 2, %74 ], [ 2, %52 ], [ 2, %27 ]
  %.sink = phi i64 [ -1, %11 ], [ -2, %20 ], [ -2, %30 ], [ -2, %74 ], [ -2, %52 ], [ -2, %27 ]
  %79 = load ptr, ptr %2, align 8, !tbaa !37
  %80 = getelementptr i8, ptr %79, i64 %.sink93
  store ptr %80, ptr %2, align 8, !tbaa !37
  %81 = add nsw i64 %.04168, %.sink
  %82 = icmp sgt i64 %81, 0
  br i1 %82, label %.lr.ph, label %.thread62

.thread62:                                        ; preds = %78, %11, %14, %20, %27, %30, %52, %74, %70, %67, %60, %56, %5
  %.2 = phi i64 [ 0, %5 ], [ 1, %56 ], [ 1, %60 ], [ 1, %67 ], [ 1, %70 ], [ -4, %74 ], [ -4, %52 ], [ -4, %30 ], [ -4, %27 ], [ -4, %20 ], [ -2, %14 ], [ -4, %11 ], [ 0, %78 ]
  ret i64 %.2
}